; Function Attrs: mustprogress uwtable
define noundef i32 @_ZNK6icu_7522TransliteratorRegistry21countAvailableTargetsERKNS_13UnicodeStringE(ptr nocapture noundef nonnull readonly align 8 dereferenceable(312) %this, ptr noundef nonnull align 8 dereferenceable(64) %source) local_unnamed_addr #1 align 2 {
entry:
  %specDAG = getelementptr inbounds i8, ptr %this, i64 96
  %0 = load ptr, ptr %specDAG, align 8
  %call.i = tail call noundef ptr @uhash_get_75(ptr noundef %0, ptr noundef nonnull %source)
  %cmp = icmp eq ptr %call.i, null
  br i1 %cmp, label %cond.end, label %cond.false

cond.false:                                       ; preds = %entry
  %1 = load ptr, ptr %call.i, align 8
  %call.i2 = tail call noundef i32 @uhash_count_75(ptr noundef %1)
  br label %cond.end

cond.end:                                         ; preds = %entry, %cond.false
  %cond = phi i32 [ %call.i2, %cond.false ], [ 0, %entry ]
  ret i32 %cond
}